target datalayout = "e-m:e-p270:32:32-p271:32:32-p272:64:64-i64:64-i128:128-f80:128-n8:16:32:64-S128"
target triple = "x86_64-pc-linux-gnu"

@proto_register_lg8979.ett = internal global [5 x ptr] [ptr @ett_lg8979, ptr @ett_lg8979_flags, ptr @ett_lg8979_funccode, ptr @ett_lg8979_point, ptr @ett_lg8979_ts], align 16
@.str.206 = private unnamed_addr constant [26 x i8] c"Landis & Gyr Telegyr 8979\00", align 1
@.str.207 = private unnamed_addr constant [9 x i8] c"L&G 8979\00", align 1
@.str.208 = private unnamed_addr constant [7 x i8] c"lg8979\00", align 1
@proto_lg8979 = internal global i32 0, align 4
@.str.209 = private unnamed_addr constant [10 x i8] c"desegment\00", align 1
@.str.210 = private unnamed_addr constant [71 x i8] c"Desegment all L&G 8979 Protocol packets spanning multiple TCP segments\00", align 1
@.str.211 = private unnamed_addr constant [92 x i8] c"Whether the L&G 8979 dissector should desegment all messages spanning multiple TCP segments\00", align 1
@lg8979_desegment = internal global i8 1, align 1

; Function Attrs: null_pointer_is_valid sspstrong uwtable
define hidden void @proto_register_lg8979() #0 {
  %1 = alloca ptr, align 8
  call void @llvm.lifetime.start.p0(i64 8, ptr %1) #4
  %2 = call i32 @proto_register_protocol(ptr noundef @.str.206, ptr noundef @.str.207, ptr noundef @.str.208)
  store i32 %2, ptr @proto_lg8979, align 4
  %3 = load i32, ptr @proto_lg8979, align 4
  %4 = call ptr @register_dissector(ptr noundef @.str.208, ptr noundef @dissect_lg8979_simple, i32 noundef %3)
  %5 = load i32, ptr @proto_lg8979, align 4
  call void @proto_register_field_array(i32 noundef %5, ptr noundef @proto_register_lg8979.lg8979_hf, i32 noundef 112)
  call void @proto_register_subtree_array(ptr noundef @proto_register_lg8979.ett, i32 noundef 5)
  %6 = load i32, ptr @proto_lg8979, align 4
  %7 = call ptr @prefs_register_protocol(i32 noundef %6, ptr noundef null)
  store ptr %7, ptr %1, align 8
  %8 = load ptr, ptr %1, align 8
  call void @prefs_register_bool_preference(ptr noundef %8, ptr noundef @.str.209, ptr noundef @.str.210, ptr noundef @.str.211, ptr noundef @lg8979_desegment)
  call void @llvm.lifetime.end.p0(i64 8, ptr %1) #4
  ret void
}