; Function Attrs: null_pointer_is_valid sspstrong uwtable
define hidden void @proto_register_lg8979() local_unnamed_addr #0 {
  %1 = tail call i32 @proto_register_protocol(ptr noundef nonnull @.str.206, ptr noundef nonnull @.str.207, ptr noundef nonnull @.str.208)
  store i32 %1, ptr @proto_lg8979, align 4
  %2 = tail call ptr @register_dissector(ptr noundef nonnull @.str.208, ptr noundef nonnull @dissect_lg8979_simple, i32 noundef %1)
  %3 = load i32, ptr @proto_lg8979, align 4
  tail call void @proto_register_field_array(i32 noundef %3, ptr noundef nonnull @proto_register_lg8979.lg8979_hf, i32 noundef 112)
  tail call void @proto_register_subtree_array(ptr noundef nonnull @proto_register_lg8979.ett, i32 noundef 5)
  %4 = load i32, ptr @proto_lg8979, align 4
  %5 = tail call ptr @prefs_register_protocol(i32 noundef %4, ptr noundef null)
  tail call void @prefs_register_bool_preference(ptr noundef %5, ptr noundef nonnull @.str.209, ptr noundef nonnull @.str.210, ptr noundef nonnull @.str.211, ptr noundef nonnull @lg8979_desegment)
  ret void
}